target datalayout = "e-m:e-p270:32:32-p271:32:32-p272:64:64-i64:64-i128:128-f80:128-n8:16:32:64-S128"
target triple = "x86_64-pc-linux-gnu"

%struct._GtkTreeIter = type { i32, ptr, ptr, ptr }

; Function Attrs: nounwind uwtable
define internal i32 @_find_tag_iter_tagid(ptr noundef %0, ptr noundef %1, i32 noundef %2) #0 {
  %4 = alloca i32, align 4
  %5 = alloca ptr, align 8
  %6 = alloca ptr, align 8
  %7 = alloca i32, align 4
  %8 = alloca i32, align 4
  %9 = alloca i32, align 4
  %10 = alloca %struct._GtkTreeIter, align 8
  %11 = alloca %struct._GtkTreeIter, align 8
  store ptr %0, ptr %5, align 8, !tbaa !36
  store ptr %1, ptr %6, align 8, !tbaa !134
  store i32 %2, ptr %7, align 4, !tbaa !31
  call void @llvm.lifetime.start.p0(i64 4, ptr %8) #11
  br label %12

12:                                               ; preds = %36, %3
  %13 = load ptr, ptr %5, align 8, !tbaa !36
  %14 = load ptr, ptr %6, align 8, !tbaa !134
  call void (ptr, ptr, ...) @gtk_tree_model_get(ptr noundef %13, ptr noundef %14, i32 noundef 1, ptr noundef %8, i32 noundef -1)
  %15 = load i32, ptr %8, align 4, !tbaa !31
  %16 = load i32, ptr %7, align 4, !tbaa !31
  %17 = icmp eq i32 %15, %16
  br i1 %17, label %18, label %19

18:                                               ; preds = %12
  store i32 1, ptr %4, align 4
  store i32 1, ptr %9, align 4
  br label %42

19:                                               ; preds = %12
  call void @llvm.lifetime.start.p0(i64 32, ptr %10) #11
  call void @llvm.lifetime.start.p0(i64 32, ptr %11) #11
  %20 = load ptr, ptr %6, align 8, !tbaa !134
  call void @llvm.memcpy.p0.p0.i64(ptr align 8 %11, ptr align 8 %20, i64 32, i1 false), !tbaa.struct !50
  %21 = load ptr, ptr %5, align 8, !tbaa !36
  %22 = call i32 @gtk_tree_model_iter_children(ptr noundef %21, ptr noundef %10, ptr noundef %11)
  %23 = icmp ne i32 %22, 0
  br i1 %23, label %24, label %32

24:                                               ; preds = %19
  %25 = load ptr, ptr %5, align 8, !tbaa !36
  %26 = load i32, ptr %7, align 4, !tbaa !31
  %27 = call i32 @_find_tag_iter_tagid(ptr noundef %25, ptr noundef %10, i32 noundef %26)
  %28 = icmp ne i32 %27, 0
  br i1 %28, label %29, label %31

29:                                               ; preds = %24
  %30 = load ptr, ptr %6, align 8, !tbaa !134
  call void @llvm.memcpy.p0.p0.i64(ptr align 8 %30, ptr align 8 %10, i64 32, i1 false), !tbaa.struct !50
  store i32 1, ptr %4, align 4
  store i32 1, ptr %9, align 4
  br label %33

31:                                               ; preds = %24
  br label %32

32:                                               ; preds = %31, %19
  store i32 0, ptr %9, align 4
  br label %33

33:                                               ; preds = %32, %29
  call void @llvm.lifetime.end.p0(i64 32, ptr %11) #11
  call void @llvm.lifetime.end.p0(i64 32, ptr %10) #11
  %34 = load i32, ptr %9, align 4
  switch i32 %34, label %42 [
    i32 0, label %35
  ]

35:                                               ; preds = %33
  br label %36

36:                                               ; preds = %35
  %37 = load ptr, ptr %5, align 8, !tbaa !36
  %38 = load ptr, ptr %6, align 8, !tbaa !134
  %39 = call i32 @gtk_tree_model_iter_next(ptr noundef %37, ptr noundef %38)
  %40 = icmp ne i32 %39, 0
  br i1 %40, label %12, label %41

41:                                               ; preds = %36
  store i32 0, ptr %4, align 4
  store i32 1, ptr %9, align 4
  br label %42

42:                                               ; preds = %41, %33, %18
  call void @llvm.lifetime.end.p0(i64 4, ptr %8) #11
  %43 = load i32, ptr %4, align 4
  ret i32 %43
}