; Function Attrs: nounwind uwtable
define internal fastcc noundef range(i32 0, 2) i32 @_find_tag_iter_tagid(ptr noundef %0, ptr noundef nonnull %1, i32 noundef %2) unnamed_addr #1 {
  %4 = alloca i32, align 4
  %5 = alloca %struct._GtkTreeIter, align 8
  %6 = alloca %struct._GtkTreeIter, align 8
  call void @llvm.lifetime.start.p0(i64 4, ptr nonnull %4) #16
  br label %7

7:                                                ; preds = %14, %3
  call void (ptr, ptr, ...) @gtk_tree_model_get(ptr noundef %0, ptr noundef nonnull %1, i32 noundef 1, ptr noundef nonnull %4, i32 noundef -1) #16
  %8 = load i32, ptr %4, align 4, !tbaa !46
  %9 = icmp eq i32 %8, %2
  br i1 %9, label %.loopexit, label %10

10:                                               ; preds = %7
  call void @llvm.lifetime.start.p0(i64 32, ptr nonnull %5) #16
  call void @llvm.lifetime.start.p0(i64 32, ptr nonnull %6) #16
  call void @llvm.memcpy.p0.p0.i64(ptr noundef nonnull align 8 dereferenceable(32) %6, ptr noundef nonnull align 8 dereferenceable(32) %1, i64 32, i1 false), !tbaa.struct !45
  %11 = call i32 @gtk_tree_model_iter_children(ptr noundef %0, ptr noundef nonnull %5, ptr noundef nonnull %6) #16
  %.not = icmp eq i32 %11, 0
  br i1 %.not, label %14, label %12

12:                                               ; preds = %10
  %13 = call fastcc i32 @_find_tag_iter_tagid(ptr noundef %0, ptr noundef %5, i32 noundef %2)
  %.not13 = icmp eq i32 %13, 0
  br i1 %.not13, label %14, label %.critedge

.critedge:                                        ; preds = %12
  call void @llvm.memcpy.p0.p0.i64(ptr noundef nonnull align 8 dereferenceable(32) %1, ptr noundef nonnull align 8 dereferenceable(32) %5, i64 32, i1 false), !tbaa.struct !45
  call void @llvm.lifetime.end.p0(i64 32, ptr nonnull %6) #16
  call void @llvm.lifetime.end.p0(i64 32, ptr nonnull %5) #16
  br label %.loopexit

14:                                               ; preds = %10, %12
  call void @llvm.lifetime.end.p0(i64 32, ptr nonnull %6) #16
  call void @llvm.lifetime.end.p0(i64 32, ptr nonnull %5) #16
  %15 = call i32 @gtk_tree_model_iter_next(ptr noundef %0, ptr noundef nonnull %1) #16
  %.not14 = icmp eq i32 %15, 0
  br i1 %.not14, label %.loopexit, label %7

.loopexit:                                        ; preds = %14, %7, %.critedge
  %.1 = phi i32 [ 1, %.critedge ], [ 0, %14 ], [ 1, %7 ]
  call void @llvm.lifetime.end.p0(i64 4, ptr nonnull %4) #16
  ret i32 %.1
}